target datalayout = "e-m:e-p270:32:32-p271:32:32-p272:64:64-i64:64-i128:128-f80:128-n8:16:32:64-S128"
target triple = "x86_64-pc-linux-gnu"

%struct.ForEachState = type { ptr, i32 }
%struct.List = type { i32, i32, i32, ptr, [0 x %union.ListCell] }
%union.ListCell = type { ptr }
%struct.QualCost = type { double, double }
%struct.Node = type { i32 }
%struct.RestrictInfo = type { i32, ptr, i8, i8, i8, i8, i8, i8, i32, i32, i32, ptr, ptr, ptr, ptr, ptr, ptr, ptr, i32, ptr, %struct.QualCost, double, double, ptr, ptr, ptr, ptr, ptr, ptr, i8, i32, double, double, double, double, i32, i32 }
%struct.ParamPathInfo = type { i32, ptr, double, ptr, ptr }
%struct.Path = type { i32, i32, ptr, ptr, ptr, i8, i8, i32, double, i32, double, double, ptr }
%struct.JoinPath = type { %struct.Path, i32, i8, ptr, ptr, ptr }
%struct.AppendPath = type { %struct.Path, ptr, i32, double }

; Function Attrs: inlinehint nounwind uwtable
define internal ptr @list_head(ptr noundef %0) #2 {
  %2 = alloca ptr, align 8
  store ptr %0, ptr %2, align 8
  %3 = load ptr, ptr %2, align 8
  %4 = icmp ne ptr %3, null
  br i1 %4, label %5, label %10

5:                                                ; preds = %1
  %6 = load ptr, ptr %2, align 8
  %7 = getelementptr inbounds nuw %struct.List, ptr %6, i32 0, i32 3
  %8 = load ptr, ptr %7, align 8
  %9 = getelementptr inbounds %union.ListCell, ptr %8, i64 0
  br label %11

10:                                               ; preds = %1
  br label %11

11:                                               ; preds = %10, %5
  %12 = phi ptr [ %9, %5 ], [ null, %10 ]
  ret ptr %12
}

; Function Attrs: nounwind uwtable
define dso_local ptr @get_param_path_clause_serials(ptr noundef %0) #0 {
  %2 = alloca ptr, align 8
  %3 = alloca ptr, align 8
  %4 = alloca ptr, align 8
  %5 = alloca ptr, align 8
  %6 = alloca ptr, align 8
  %7 = alloca %struct.ForEachState, align 8
  %8 = alloca ptr, align 8
  %9 = alloca ptr, align 8
  %10 = alloca ptr, align 8
  %11 = alloca ptr, align 8
  %12 = alloca %struct.ForEachState, align 8
  %13 = alloca ptr, align 8
  %14 = alloca ptr, align 8
  store ptr %0, ptr %3, align 8
  %15 = load ptr, ptr %3, align 8
  %16 = getelementptr inbounds nuw %struct.Path, ptr %15, i32 0, i32 4
  %17 = load ptr, ptr %16, align 8
  %18 = icmp eq ptr %17, null
  br i1 %18, label %19, label %20

19:                                               ; preds = %1
  store ptr null, ptr %2, align 8
  br label %165

20:                                               ; preds = %1
  %21 = load ptr, ptr %3, align 8
  %22 = getelementptr inbounds nuw %struct.Node, ptr %21, i32 0, i32 0
  %23 = load i32, ptr %22, align 4
  %24 = icmp eq i32 %23, 297
  br i1 %24, label %35, label %25

25:                                               ; preds = %20
  %26 = load ptr, ptr %3, align 8
  %27 = getelementptr inbounds nuw %struct.Node, ptr %26, i32 0, i32 0
  %28 = load i32, ptr %27, align 4
  %29 = icmp eq i32 %28, 298
  br i1 %29, label %35, label %30

30:                                               ; preds = %25
  %31 = load ptr, ptr %3, align 8
  %32 = getelementptr inbounds nuw %struct.Node, ptr %31, i32 0, i32 0
  %33 = load i32, ptr %32, align 4
  %34 = icmp eq i32 %33, 299
  br i1 %34, label %35, label %95

35:                                               ; preds = %30, %25, %20
  call void @llvm.lifetime.start.p0(i64 8, ptr %4) #6
  %36 = load ptr, ptr %3, align 8
  store ptr %36, ptr %4, align 8
  call void @llvm.lifetime.start.p0(i64 8, ptr %5) #6
  call void @llvm.lifetime.start.p0(i64 8, ptr %6) #6
  store ptr null, ptr %5, align 8
  %37 = load ptr, ptr %5, align 8
  %38 = load ptr, ptr %4, align 8
  %39 = getelementptr inbounds nuw %struct.JoinPath, ptr %38, i32 0, i32 3
  %40 = load ptr, ptr %39, align 8
  %41 = call ptr @get_param_path_clause_serials(ptr noundef %40)
  %42 = call ptr @bms_add_members(ptr noundef %37, ptr noundef %41)
  store ptr %42, ptr %5, align 8
  %43 = load ptr, ptr %5, align 8
  %44 = load ptr, ptr %4, align 8
  %45 = getelementptr inbounds nuw %struct.JoinPath, ptr %44, i32 0, i32 4
  %46 = load ptr, ptr %45, align 8
  %47 = call ptr @get_param_path_clause_serials(ptr noundef %46)
  %48 = call ptr @bms_add_members(ptr noundef %43, ptr noundef %47)
  store ptr %48, ptr %5, align 8
  call void @llvm.lifetime.start.p0(i64 16, ptr %7) #6
  %49 = getelementptr inbounds nuw %struct.ForEachState, ptr %7, i32 0, i32 0
  %50 = load ptr, ptr %4, align 8
  %51 = getelementptr inbounds nuw %struct.JoinPath, ptr %50, i32 0, i32 5
  %52 = load ptr, ptr %51, align 8
  store ptr %52, ptr %49, align 8
  %53 = getelementptr inbounds nuw %struct.ForEachState, ptr %7, i32 0, i32 1
  store i32 0, ptr %53, align 8
  %54 = getelementptr i8, ptr %7, i64 12
  call void @llvm.memset.p0.i64(ptr align 4 %54, i8 0, i64 4, i1 false)
  br label %55

55:                                               ; preds = %89, %35
  %56 = getelementptr inbounds nuw %struct.ForEachState, ptr %7, i32 0, i32 0
  %57 = load ptr, ptr %56, align 8
  %58 = icmp ne ptr %57, null
  br i1 %58, label %59, label %76

59:                                               ; preds = %55
  %60 = getelementptr inbounds nuw %struct.ForEachState, ptr %7, i32 0, i32 1
  %61 = load i32, ptr %60, align 8
  %62 = getelementptr inbounds nuw %struct.ForEachState, ptr %7, i32 0, i32 0
  %63 = load ptr, ptr %62, align 8
  %64 = getelementptr inbounds nuw %struct.List, ptr %63, i32 0, i32 1
  %65 = load i32, ptr %64, align 4
  %66 = icmp slt i32 %61, %65
  br i1 %66, label %67, label %76

67:                                               ; preds = %59
  %68 = getelementptr inbounds nuw %struct.ForEachState, ptr %7, i32 0, i32 0
  %69 = load ptr, ptr %68, align 8
  %70 = getelementptr inbounds nuw %struct.List, ptr %69, i32 0, i32 3
  %71 = load ptr, ptr %70, align 8
  %72 = getelementptr inbounds nuw %struct.ForEachState, ptr %7, i32 0, i32 1
  %73 = load i32, ptr %72, align 8
  %74 = sext i32 %73 to i64
  %75 = getelementptr inbounds %union.ListCell, ptr %71, i64 %74
  store ptr %75, ptr %6, align 8
  br label %77

76:                                               ; preds = %59, %55
  store ptr null, ptr %6, align 8
  br label %77

77:                                               ; preds = %76, %67
  %78 = phi i32 [ 1, %67 ], [ 0, %76 ]
  %79 = icmp ne i32 %78, 0
  br i1 %79, label %81, label %80

80:                                               ; preds = %77
  call void @llvm.lifetime.end.p0(i64 16, ptr %7) #6
  br label %93

81:                                               ; preds = %77
  call void @llvm.lifetime.start.p0(i64 8, ptr %8) #6
  %82 = load ptr, ptr %6, align 8
  %83 = load ptr, ptr %82, align 8
  store ptr %83, ptr %8, align 8
  %84 = load ptr, ptr %5, align 8
  %85 = load ptr, ptr %8, align 8
  %86 = getelementptr inbounds nuw %struct.RestrictInfo, ptr %85, i32 0, i32 18
  %87 = load i32, ptr %86, align 8
  %88 = call ptr @bms_add_member(ptr noundef %84, i32 noundef %87)
  store ptr %88, ptr %5, align 8
  call void @llvm.lifetime.end.p0(i64 8, ptr %8) #6
  br label %89

89:                                               ; preds = %81
  %90 = getelementptr inbounds nuw %struct.ForEachState, ptr %7, i32 0, i32 1
  %91 = load i32, ptr %90, align 8
  %92 = add i32 %91, 1
  store i32 %92, ptr %90, align 8
  br label %55, !llvm.loop !22

93:                                               ; preds = %80
  %94 = load ptr, ptr %5, align 8
  store ptr %94, ptr %2, align 8
  call void @llvm.lifetime.end.p0(i64 8, ptr %6) #6
  call void @llvm.lifetime.end.p0(i64 8, ptr %5) #6
  call void @llvm.lifetime.end.p0(i64 8, ptr %4) #6
  br label %165

95:                                               ; preds = %30
  %96 = load ptr, ptr %3, align 8
  %97 = getelementptr inbounds nuw %struct.Node, ptr %96, i32 0, i32 0
  %98 = load i32, ptr %97, align 4
  %99 = icmp eq i32 %98, 289
  br i1 %99, label %100, label %159

100:                                              ; preds = %95
  call void @llvm.lifetime.start.p0(i64 8, ptr %9) #6
  %101 = load ptr, ptr %3, align 8
  store ptr %101, ptr %9, align 8
  call void @llvm.lifetime.start.p0(i64 8, ptr %10) #6
  call void @llvm.lifetime.start.p0(i64 8, ptr %11) #6
  store ptr null, ptr %10, align 8
  call void @llvm.lifetime.start.p0(i64 16, ptr %12) #6
  %102 = getelementptr inbounds nuw %struct.ForEachState, ptr %12, i32 0, i32 0
  %103 = load ptr, ptr %9, align 8
  %104 = getelementptr inbounds nuw %struct.AppendPath, ptr %103, i32 0, i32 1
  %105 = load ptr, ptr %104, align 8
  store ptr %105, ptr %102, align 8
  %106 = getelementptr inbounds nuw %struct.ForEachState, ptr %12, i32 0, i32 1
  store i32 0, ptr %106, align 8
  %107 = getelementptr i8, ptr %12, i64 12
  call void @llvm.memset.p0.i64(ptr align 4 %107, i8 0, i64 4, i1 false)
  br label %108

108:                                              ; preds = %153, %100
  %109 = getelementptr inbounds nuw %struct.ForEachState, ptr %12, i32 0, i32 0
  %110 = load ptr, ptr %109, align 8
  %111 = icmp ne ptr %110, null
  br i1 %111, label %112, label %129

112:                                              ; preds = %108
  %113 = getelementptr inbounds nuw %struct.ForEachState, ptr %12, i32 0, i32 1
  %114 = load i32, ptr %113, align 8
  %115 = getelementptr inbounds nuw %struct.ForEachState, ptr %12, i32 0, i32 0
  %116 = load ptr, ptr %115, align 8
  %117 = getelementptr inbounds nuw %struct.List, ptr %116, i32 0, i32 1
  %118 = load i32, ptr %117, align 4
  %119 = icmp slt i32 %114, %118
  br i1 %119, label %120, label %129

120:                                              ; preds = %112
  %121 = getelementptr inbounds nuw %struct.ForEachState, ptr %12, i32 0, i32 0
  %122 = load ptr, ptr %121, align 8
  %123 = getelementptr inbounds nuw %struct.List, ptr %122, i32 0, i32 3
  %124 = load ptr, ptr %123, align 8
  %125 = getelementptr inbounds nuw %struct.ForEachState, ptr %12, i32 0, i32 1
  %126 = load i32, ptr %125, align 8
  %127 = sext i32 %126 to i64
  %128 = getelementptr inbounds %union.ListCell, ptr %124, i64 %127
  store ptr %128, ptr %11, align 8
  br label %130

129:                                              ; preds = %112, %108
  store ptr null, ptr %11, align 8
  br label %130

130:                                              ; preds = %129, %120
  %131 = phi i32 [ 1, %120 ], [ 0, %129 ]
  %132 = icmp ne i32 %131, 0
  br i1 %132, label %134, label %133

133:                                              ; preds = %130
  call void @llvm.lifetime.end.p0(i64 16, ptr %12) #6
  br label %157

134:                                              ; preds = %130
  call void @llvm.lifetime.start.p0(i64 8, ptr %13) #6
  %135 = load ptr, ptr %11, align 8
  %136 = load ptr, ptr %135, align 8
  store ptr %136, ptr %13, align 8
  call void @llvm.lifetime.start.p0(i64 8, ptr %14) #6
  %137 = load ptr, ptr %13, align 8
  %138 = call ptr @get_param_path_clause_serials(ptr noundef %137)
  store ptr %138, ptr %14, align 8
  %139 = load ptr, ptr %11, align 8
  %140 = load ptr, ptr %9, align 8
  %141 = getelementptr inbounds nuw %struct.AppendPath, ptr %140, i32 0, i32 1
  %142 = load ptr, ptr %141, align 8
  %143 = call ptr @list_head(ptr noundef %142)
  %144 = icmp eq ptr %139, %143
  br i1 %144, label %145, label %148

145:                                              ; preds = %134
  %146 = load ptr, ptr %14, align 8
  %147 = call ptr @bms_copy(ptr noundef %146)
  store ptr %147, ptr %10, align 8
  br label %152

148:                                              ; preds = %134
  %149 = load ptr, ptr %10, align 8
  %150 = load ptr, ptr %14, align 8
  %151 = call ptr @bms_int_members(ptr noundef %149, ptr noundef %150)
  store ptr %151, ptr %10, align 8
  br label %152

152:                                              ; preds = %148, %145
  call void @llvm.lifetime.end.p0(i64 8, ptr %14) #6
  call void @llvm.lifetime.end.p0(i64 8, ptr %13) #6
  br label %153

153:                                              ; preds = %152
  %154 = getelementptr inbounds nuw %struct.ForEachState, ptr %12, i32 0, i32 1
  %155 = load i32, ptr %154, align 8
  %156 = add i32 %155, 1
  store i32 %156, ptr %154, align 8
  br label %108, !llvm.loop !23

157:                                              ; preds = %133
  %158 = load ptr, ptr %10, align 8
  store ptr %158, ptr %2, align 8
  call void @llvm.lifetime.end.p0(i64 8, ptr %11) #6
  call void @llvm.lifetime.end.p0(i64 8, ptr %10) #6
  call void @llvm.lifetime.end.p0(i64 8, ptr %9) #6
  br label %165

159:                                              ; preds = %95
  %160 = load ptr, ptr %3, align 8
  %161 = getelementptr inbounds nuw %struct.Path, ptr %160, i32 0, i32 4
  %162 = load ptr, ptr %161, align 8
  %163 = getelementptr inbounds nuw %struct.ParamPathInfo, ptr %162, i32 0, i32 4
  %164 = load ptr, ptr %163, align 8
  store ptr %164, ptr %2, align 8
  br label %165

165:                                              ; preds = %159, %157, %93, %19
  %166 = load ptr, ptr %2, align 8
  ret ptr %166
}