; Function Attrs: nounwind uwtable
define dso_local ptr @get_param_path_clause_serials(ptr noundef readonly captures(none) %0) local_unnamed_addr #0 {
  %2 = getelementptr inbounds nuw i8, ptr %0, i64 24
  %3 = load ptr, ptr %2, align 8
  %4 = icmp eq ptr %3, null
  br i1 %4, label %.thread, label %5

5:                                                ; preds = %1
  %6 = load i32, ptr %0, align 4
  switch i32 %6, label %53 [
    i32 297, label %7
    i32 298, label %7
    i32 299, label %7
    i32 289, label %31
  ]

7:                                                ; preds = %5, %5, %5
  %8 = getelementptr inbounds nuw i8, ptr %0, i64 88
  %9 = load ptr, ptr %8, align 8
  %10 = tail call ptr @get_param_path_clause_serials(ptr noundef %9)
  %11 = tail call ptr @bms_add_members(ptr noundef null, ptr noundef %10) #7
  %12 = getelementptr inbounds nuw i8, ptr %0, i64 96
  %13 = load ptr, ptr %12, align 8
  %14 = tail call ptr @get_param_path_clause_serials(ptr noundef %13)
  %15 = tail call ptr @bms_add_members(ptr noundef %11, ptr noundef %14) #7
  %16 = getelementptr inbounds nuw i8, ptr %0, i64 104
  %17 = load ptr, ptr %16, align 8
  %18 = getelementptr inbounds nuw i8, ptr %17, i64 4
  %.not47 = icmp eq ptr %17, null
  br i1 %.not47, label %.thread, label %.lr.ph67

.lr.ph67:                                         ; preds = %7
  %19 = getelementptr inbounds nuw i8, ptr %17, i64 16
  %20 = load i32, ptr %18, align 4
  %21 = icmp sgt i32 %20, 0
  br i1 %21, label %.lr.ph75, label %.thread

.lr.ph75:                                         ; preds = %.lr.ph67, %.lr.ph75
  %indvars.iv79 = phi i64 [ %indvars.iv.next80, %.lr.ph75 ], [ 0, %.lr.ph67 ]
  %.0386673 = phi ptr [ %27, %.lr.ph75 ], [ %15, %.lr.ph67 ]
  %22 = load ptr, ptr %19, align 8
  %23 = getelementptr inbounds nuw %union.ListCell, ptr %22, i64 %indvars.iv79
  %24 = load ptr, ptr %23, align 8
  %25 = getelementptr inbounds nuw i8, ptr %24, i64 96
  %26 = load i32, ptr %25, align 8
  %27 = tail call ptr @bms_add_member(ptr noundef %.0386673, i32 noundef %26) #7
  %indvars.iv.next80 = add nuw nsw i64 %indvars.iv79, 1
  %28 = load i32, ptr %18, align 4
  %29 = sext i32 %28 to i64
  %30 = icmp slt i64 %indvars.iv.next80, %29
  br i1 %30, label %.lr.ph75, label %.thread

31:                                               ; preds = %5
  %32 = getelementptr inbounds nuw i8, ptr %0, i64 80
  %33 = load ptr, ptr %32, align 8
  %34 = getelementptr inbounds nuw i8, ptr %33, i64 4
  %.not = icmp eq ptr %33, null
  br i1 %.not, label %.thread, label %.lr.ph

.lr.ph:                                           ; preds = %31
  %35 = getelementptr inbounds nuw i8, ptr %33, i64 16
  %36 = load i32, ptr %34, align 4
  %37 = icmp sgt i32 %36, 0
  br i1 %37, label %.lr.ph63, label %.thread

.lr.ph63:                                         ; preds = %.lr.ph, %49
  %indvars.iv = phi i64 [ %indvars.iv.next, %49 ], [ 0, %.lr.ph ]
  %.0415662 = phi ptr [ %.1, %49 ], [ null, %.lr.ph ]
  %38 = load ptr, ptr %35, align 8
  %39 = getelementptr inbounds nuw %union.ListCell, ptr %38, i64 %indvars.iv
  %40 = load ptr, ptr %39, align 8
  %41 = tail call ptr @get_param_path_clause_serials(ptr noundef %40)
  %42 = load ptr, ptr %32, align 8
  %.not.i = icmp eq ptr %42, null
  br i1 %.not.i, label %list_head.exit.thread, label %list_head.exit

list_head.exit:                                   ; preds = %.lr.ph63
  %43 = getelementptr inbounds nuw i8, ptr %42, i64 16
  %44 = load ptr, ptr %43, align 8
  %45 = icmp eq ptr %39, %44
  br i1 %45, label %46, label %list_head.exit.thread

46:                                               ; preds = %list_head.exit
  %47 = tail call ptr @bms_copy(ptr noundef %41) #7
  br label %49

list_head.exit.thread:                            ; preds = %.lr.ph63, %list_head.exit
  %48 = tail call ptr @bms_int_members(ptr noundef %.0415662, ptr noundef %41) #7
  br label %49

49:                                               ; preds = %list_head.exit.thread, %46
  %.1 = phi ptr [ %47, %46 ], [ %48, %list_head.exit.thread ]
  %indvars.iv.next = add nuw nsw i64 %indvars.iv, 1
  %50 = load i32, ptr %34, align 4
  %51 = sext i32 %50 to i64
  %52 = icmp slt i64 %indvars.iv.next, %51
  br i1 %52, label %.lr.ph63, label %.thread

53:                                               ; preds = %5
  %54 = getelementptr inbounds nuw i8, ptr %3, i64 32
  %55 = load ptr, ptr %54, align 8
  br label %.thread

.thread:                                          ; preds = %49, %.lr.ph75, %31, %.lr.ph, %7, %.lr.ph67, %1, %53
  %.0 = phi ptr [ %55, %53 ], [ null, %1 ], [ %15, %7 ], [ %15, %.lr.ph67 ], [ null, %31 ], [ null, %.lr.ph ], [ %27, %.lr.ph75 ], [ %.1, %49 ]
  ret ptr %.0
}